target datalayout = "e-m:e-p270:32:32-p271:32:32-p272:64:64-i64:64-i128:128-f80:128-n8:16:32:64-S128"
target triple = "x86_64-pc-linux-gnu"

%struct.lean_object = type { i32, i32 }
%struct.lean_ctor_object = type { %struct.lean_object, [0 x ptr] }

; Function Attrs: inlinehint nounwind uwtable
define internal ptr @lean_to_ctor(ptr noundef %0) #0 {
  %2 = alloca ptr, align 8
  store ptr %0, ptr %2, align 8, !tbaa !4
  %3 = load ptr, ptr %2, align 8, !tbaa !4
  ret ptr %3
}

; Function Attrs: inlinehint nounwind uwtable
define internal ptr @lean_ctor_obj_cptr(ptr noundef %0) #0 {
  %2 = alloca ptr, align 8
  store ptr %0, ptr %2, align 8, !tbaa !4
  %3 = load ptr, ptr %2, align 8, !tbaa !4
  %4 = call ptr @lean_to_ctor(ptr noundef %3)
  %5 = getelementptr inbounds nuw %struct.lean_ctor_object, ptr %4, i32 0, i32 1
  %6 = getelementptr inbounds [0 x ptr], ptr %5, i64 0, i64 0
  ret ptr %6
}

; Function Attrs: inlinehint nounwind uwtable
define internal ptr @lean_ctor_get(ptr noundef %0, i32 noundef %1) #0 {
  %3 = alloca ptr, align 8
  %4 = alloca i32, align 4
  store ptr %0, ptr %3, align 8, !tbaa !4
  store i32 %1, ptr %4, align 4, !tbaa !11
  %5 = load ptr, ptr %3, align 8, !tbaa !4
  %6 = call ptr @lean_ctor_obj_cptr(ptr noundef %5)
  %7 = load i32, ptr %4, align 4, !tbaa !11
  %8 = zext i32 %7 to i64
  %9 = getelementptr inbounds nuw ptr, ptr %6, i64 %8
  %10 = load ptr, ptr %9, align 8, !tbaa !4
  ret ptr %10
}

; Function Attrs: nounwind uwtable
define zeroext i8 @l___private_Std_Time_DateTime_PlainDateTime_0__Std_Time_decEqPlainDateTime____x40_Std_Time_DateTime_PlainDateTime___hyg_269_(ptr noundef %0, ptr noundef %1) #2 {
  %3 = alloca i8, align 1
  %4 = alloca ptr, align 8
  %5 = alloca ptr, align 8
  %6 = alloca ptr, align 8
  %7 = alloca ptr, align 8
  %8 = alloca ptr, align 8
  %9 = alloca ptr, align 8
  %10 = alloca i8, align 1
  %11 = alloca i8, align 1
  %12 = alloca i32, align 4
  %13 = alloca i8, align 1
  store ptr %0, ptr %4, align 8, !tbaa !4
  store ptr %1, ptr %5, align 8, !tbaa !4
  br label %14

14:                                               ; preds = %2
  call void @llvm.lifetime.start.p0(i64 8, ptr %6) #7
  call void @llvm.lifetime.start.p0(i64 8, ptr %7) #7
  call void @llvm.lifetime.start.p0(i64 8, ptr %8) #7
  call void @llvm.lifetime.start.p0(i64 8, ptr %9) #7
  call void @llvm.lifetime.start.p0(i64 1, ptr %10) #7
  %15 = load ptr, ptr %4, align 8, !tbaa !4
  %16 = call ptr @lean_ctor_get(ptr noundef %15, i32 noundef 0)
  store ptr %16, ptr %6, align 8, !tbaa !4
  %17 = load ptr, ptr %4, align 8, !tbaa !4
  %18 = call ptr @lean_ctor_get(ptr noundef %17, i32 noundef 1)
  store ptr %18, ptr %7, align 8, !tbaa !4
  %19 = load ptr, ptr %5, align 8, !tbaa !4
  %20 = call ptr @lean_ctor_get(ptr noundef %19, i32 noundef 0)
  store ptr %20, ptr %8, align 8, !tbaa !4
  %21 = load ptr, ptr %5, align 8, !tbaa !4
  %22 = call ptr @lean_ctor_get(ptr noundef %21, i32 noundef 1)
  store ptr %22, ptr %9, align 8, !tbaa !4
  %23 = load ptr, ptr %6, align 8, !tbaa !4
  %24 = load ptr, ptr %8, align 8, !tbaa !4
  %25 = call zeroext i8 @l___private_Std_Time_Date_PlainDate_0__Std_Time_decEqPlainDate____x40_Std_Time_Date_PlainDate___hyg_428_(ptr noundef %23, ptr noundef %24)
  store i8 %25, ptr %10, align 1, !tbaa !10
  %26 = load i8, ptr %10, align 1, !tbaa !10
  %27 = zext i8 %26 to i32
  %28 = icmp eq i32 %27, 0
  br i1 %28, label %29, label %31

29:                                               ; preds = %14
  call void @llvm.lifetime.start.p0(i64 1, ptr %11) #7
  store i8 0, ptr %11, align 1, !tbaa !10
  %30 = load i8, ptr %11, align 1, !tbaa !10
  store i8 %30, ptr %3, align 1
  store i32 1, ptr %12, align 4
  call void @llvm.lifetime.end.p0(i64 1, ptr %11) #7
  br label %36

31:                                               ; preds = %14
  call void @llvm.lifetime.start.p0(i64 1, ptr %13) #7
  %32 = load ptr, ptr %7, align 8, !tbaa !4
  %33 = load ptr, ptr %9, align 8, !tbaa !4
  %34 = call zeroext i8 @l___private_Std_Time_Time_PlainTime_0__Std_Time_decEqPlainTime____x40_Std_Time_Time_PlainTime___hyg_501_(ptr noundef %32, ptr noundef %33)
  store i8 %34, ptr %13, align 1, !tbaa !10
  %35 = load i8, ptr %13, align 1, !tbaa !10
  store i8 %35, ptr %3, align 1
  store i32 1, ptr %12, align 4
  call void @llvm.lifetime.end.p0(i64 1, ptr %13) #7
  br label %36

36:                                               ; preds = %31, %29
  call void @llvm.lifetime.end.p0(i64 1, ptr %10) #7
  call void @llvm.lifetime.end.p0(i64 8, ptr %9) #7
  call void @llvm.lifetime.end.p0(i64 8, ptr %8) #7
  call void @llvm.lifetime.end.p0(i64 8, ptr %7) #7
  call void @llvm.lifetime.end.p0(i64 8, ptr %6) #7
  %37 = load i8, ptr %3, align 1
  ret i8 %37
}